target datalayout = "e-m:e-p270:32:32-p271:32:32-p272:64:64-i64:64-i128:128-f80:128-n8:16:32:64-S128"
target triple = "x86_64-pc-linux-gnu"

%struct.Dec_Node_t_ = type { %struct.Dec_Edge_t_, %struct.Dec_Edge_t_, %union.anon, i32 }
%struct.Dec_Edge_t_ = type { i32 }
%union.anon = type { ptr }
%struct.Dec_Graph_t_ = type { i32, i32, i32, i32, ptr, %struct.Dec_Edge_t_ }

; Function Attrs: nounwind uwtable
define internal ptr @Abc_NtkCreateNode(ptr noundef %0) #0 {
  %2 = alloca ptr, align 8
  store ptr %0, ptr %2, align 8
  %3 = load ptr, ptr %2, align 8
  %4 = call ptr @Abc_NtkCreateObj(ptr noundef %3, i32 noundef 7)
  ret ptr %4
}

; Function Attrs: nounwind uwtable
define internal ptr @Dec_GraphNode(ptr noundef %0, i32 noundef %1) #0 {
  %3 = alloca ptr, align 8
  %4 = alloca i32, align 4
  store ptr %0, ptr %3, align 8
  store i32 %1, ptr %4, align 4
  %5 = load ptr, ptr %3, align 8
  %6 = getelementptr inbounds %struct.Dec_Graph_t_, ptr %5, i32 0, i32 4
  %7 = load ptr, ptr %6, align 8
  %8 = load i32, ptr %4, align 4
  %9 = sext i32 %8 to i64
  %10 = getelementptr inbounds %struct.Dec_Node_t_, ptr %7, i64 %9
  ret ptr %10
}

; Function Attrs: nounwind uwtable
define internal ptr @Dec_GraphVar(ptr noundef %0) #0 {
  %2 = alloca ptr, align 8
  store ptr %0, ptr %2, align 8
  %3 = load ptr, ptr %2, align 8
  %4 = load ptr, ptr %2, align 8
  %5 = getelementptr inbounds %struct.Dec_Graph_t_, ptr %4, i32 0, i32 5
  %6 = load i32, ptr %5, align 8
  %7 = lshr i32 %6, 1
  %8 = and i32 %7, 1073741823
  %9 = call ptr @Dec_GraphNode(ptr noundef %3, i32 noundef %8)
  ret ptr %9
}

; Function Attrs: nounwind uwtable
define internal i32 @Dec_GraphIsVar(ptr noundef %0) #0 {
  %2 = alloca ptr, align 8
  store ptr %0, ptr %2, align 8
  %3 = load ptr, ptr %2, align 8
  %4 = getelementptr inbounds %struct.Dec_Graph_t_, ptr %3, i32 0, i32 5
  %5 = load i32, ptr %4, align 8
  %6 = lshr i32 %5, 1
  %7 = and i32 %6, 1073741823
  %8 = load ptr, ptr %2, align 8
  %9 = getelementptr inbounds %struct.Dec_Graph_t_, ptr %8, i32 0, i32 1
  %10 = load i32, ptr %9, align 4
  %11 = icmp ult i32 %7, %10
  %12 = zext i1 %11 to i32
  ret i32 %12
}

; Function Attrs: nounwind uwtable
define internal ptr @Abc_ObjNotCond(ptr noundef %0, i32 noundef %1) #0 {
  %3 = alloca ptr, align 8
  %4 = alloca i32, align 4
  store ptr %0, ptr %3, align 8
  store i32 %1, ptr %4, align 4
  %5 = load ptr, ptr %3, align 8
  %6 = ptrtoint ptr %5 to i64
  %7 = load i32, ptr %4, align 4
  %8 = icmp ne i32 %7, 0
  %9 = zext i1 %8 to i32
  %10 = sext i32 %9 to i64
  %11 = xor i64 %6, %10
  %12 = inttoptr i64 %11 to ptr
  ret ptr %12
}

; Function Attrs: nounwind uwtable
define internal i32 @Dec_GraphIsComplement(ptr noundef %0) #0 {
  %2 = alloca ptr, align 8
  store ptr %0, ptr %2, align 8
  %3 = load ptr, ptr %2, align 8
  %4 = getelementptr inbounds %struct.Dec_Graph_t_, ptr %3, i32 0, i32 5
  %5 = load i32, ptr %4, align 8
  %6 = and i32 %5, 1
  ret i32 %6
}

; Function Attrs: nounwind uwtable
define internal i32 @Dec_GraphIsConst(ptr noundef %0) #0 {
  %2 = alloca ptr, align 8
  store ptr %0, ptr %2, align 8
  %3 = load ptr, ptr %2, align 8
  %4 = getelementptr inbounds %struct.Dec_Graph_t_, ptr %3, i32 0, i32 0
  %5 = load i32, ptr %4, align 8
  ret i32 %5
}

; Function Attrs: nounwind uwtable
define ptr @Dec_GraphToNetworkNoStrash(ptr noundef %0, ptr noundef %1) #0 {
  %3 = alloca ptr, align 8
  %4 = alloca ptr, align 8
  %5 = alloca ptr, align 8
  %6 = alloca ptr, align 8
  %7 = alloca ptr, align 8
  %8 = alloca ptr, align 8
  %9 = alloca ptr, align 8
  %10 = alloca i32, align 4
  store ptr %0, ptr %4, align 8
  store ptr %1, ptr %5, align 8
  store ptr null, ptr %9, align 8
  %11 = load ptr, ptr %5, align 8
  %12 = call i32 @Dec_GraphIsConst(ptr noundef %11)
  %13 = icmp ne i32 %12, 0
  br i1 %13, label %14, label %20

14:                                               ; preds = %2
  %15 = load ptr, ptr %4, align 8
  %16 = call ptr @Abc_AigConst1(ptr noundef %15)
  %17 = load ptr, ptr %5, align 8
  %18 = call i32 @Dec_GraphIsComplement(ptr noundef %17)
  %19 = call ptr @Abc_ObjNotCond(ptr noundef %16, i32 noundef %18)
  store ptr %19, ptr %3, align 8
  br label %96

20:                                               ; preds = %2
  %21 = load ptr, ptr %5, align 8
  %22 = call i32 @Dec_GraphIsVar(ptr noundef %21)
  %23 = icmp ne i32 %22, 0
  br i1 %23, label %24, label %32

24:                                               ; preds = %20
  %25 = load ptr, ptr %5, align 8
  %26 = call ptr @Dec_GraphVar(ptr noundef %25)
  %27 = getelementptr inbounds %struct.Dec_Node_t_, ptr %26, i32 0, i32 2
  %28 = load ptr, ptr %27, align 8
  %29 = load ptr, ptr %5, align 8
  %30 = call i32 @Dec_GraphIsComplement(ptr noundef %29)
  %31 = call ptr @Abc_ObjNotCond(ptr noundef %28, i32 noundef %30)
  store ptr %31, ptr %3, align 8
  br label %96

32:                                               ; preds = %20
  %33 = load ptr, ptr %5, align 8
  %34 = getelementptr inbounds %struct.Dec_Graph_t_, ptr %33, i32 0, i32 1
  %35 = load i32, ptr %34, align 4
  store i32 %35, ptr %10, align 4
  br label %36

36:                                               ; preds = %86, %32
  %37 = load i32, ptr %10, align 4
  %38 = load ptr, ptr %5, align 8
  %39 = getelementptr inbounds %struct.Dec_Graph_t_, ptr %38, i32 0, i32 2
  %40 = load i32, ptr %39, align 8
  %41 = icmp slt i32 %37, %40
  br i1 %41, label %42, label %46

42:                                               ; preds = %36
  %43 = load ptr, ptr %5, align 8
  %44 = load i32, ptr %10, align 4
  %45 = call ptr @Dec_GraphNode(ptr noundef %43, i32 noundef %44)
  store ptr %45, ptr %9, align 8
  br label %46

46:                                               ; preds = %42, %36
  %47 = phi i1 [ false, %36 ], [ true, %42 ]
  br i1 %47, label %48, label %89

48:                                               ; preds = %46
  %49 = load ptr, ptr %5, align 8
  %50 = load ptr, ptr %9, align 8
  %51 = getelementptr inbounds %struct.Dec_Node_t_, ptr %50, i32 0, i32 0
  %52 = load i32, ptr %51, align 8
  %53 = lshr i32 %52, 1
  %54 = and i32 %53, 1073741823
  %55 = call ptr @Dec_GraphNode(ptr noundef %49, i32 noundef %54)
  %56 = getelementptr inbounds %struct.Dec_Node_t_, ptr %55, i32 0, i32 2
  %57 = load ptr, ptr %56, align 8
  %58 = load ptr, ptr %9, align 8
  %59 = getelementptr inbounds %struct.Dec_Node_t_, ptr %58, i32 0, i32 0
  %60 = load i32, ptr %59, align 8
  %61 = and i32 %60, 1
  %62 = call ptr @Abc_ObjNotCond(ptr noundef %57, i32 noundef %61)
  store ptr %62, ptr %7, align 8
  %63 = load ptr, ptr %5, align 8
  %64 = load ptr, ptr %9, align 8
  %65 = getelementptr inbounds %struct.Dec_Node_t_, ptr %64, i32 0, i32 1
  %66 = load i32, ptr %65, align 4
  %67 = lshr i32 %66, 1
  %68 = and i32 %67, 1073741823
  %69 = call ptr @Dec_GraphNode(ptr noundef %63, i32 noundef %68)
  %70 = getelementptr inbounds %struct.Dec_Node_t_, ptr %69, i32 0, i32 2
  %71 = load ptr, ptr %70, align 8
  %72 = load ptr, ptr %9, align 8
  %73 = getelementptr inbounds %struct.Dec_Node_t_, ptr %72, i32 0, i32 1
  %74 = load i32, ptr %73, align 4
  %75 = and i32 %74, 1
  %76 = call ptr @Abc_ObjNotCond(ptr noundef %71, i32 noundef %75)
  store ptr %76, ptr %8, align 8
  %77 = load ptr, ptr %4, align 8
  %78 = call ptr @Abc_NtkCreateNode(ptr noundef %77)
  store ptr %78, ptr %6, align 8
  %79 = load ptr, ptr %6, align 8
  %80 = load ptr, ptr %7, align 8
  call void @Abc_ObjAddFanin(ptr noundef %79, ptr noundef %80)
  %81 = load ptr, ptr %6, align 8
  %82 = load ptr, ptr %8, align 8
  call void @Abc_ObjAddFanin(ptr noundef %81, ptr noundef %82)
  %83 = load ptr, ptr %6, align 8
  %84 = load ptr, ptr %9, align 8
  %85 = getelementptr inbounds %struct.Dec_Node_t_, ptr %84, i32 0, i32 2
  store ptr %83, ptr %85, align 8
  br label %86

86:                                               ; preds = %48
  %87 = load i32, ptr %10, align 4
  %88 = add nsw i32 %87, 1
  store i32 %88, ptr %10, align 4
  br label %36, !llvm.loop !8

89:                                               ; preds = %46
  %90 = load ptr, ptr %9, align 8
  %91 = getelementptr inbounds %struct.Dec_Node_t_, ptr %90, i32 0, i32 2
  %92 = load ptr, ptr %91, align 8
  %93 = load ptr, ptr %5, align 8
  %94 = call i32 @Dec_GraphIsComplement(ptr noundef %93)
  %95 = call ptr @Abc_ObjNotCond(ptr noundef %92, i32 noundef %94)
  store ptr %95, ptr %3, align 8
  br label %96

96:                                               ; preds = %89, %24, %14
  %97 = load ptr, ptr %3, align 8
  ret ptr %97
}