; Function Attrs: nounwind uwtable
define ptr @Dec_GraphToNetworkNoStrash(ptr noundef %0, ptr noundef readonly captures(none) %1) local_unnamed_addr #0 {
  %.val = load i32, ptr %1, align 8
  %.not = icmp eq i32 %.val, 0
  br i1 %.not, label %10, label %3

3:                                                ; preds = %2
  %4 = tail call ptr @Abc_AigConst1(ptr noundef %0) #7
  %5 = getelementptr i8, ptr %1, i64 24
  %.val32 = load i32, ptr %5, align 8
  %6 = and i32 %.val32, 1
  %7 = ptrtoint ptr %4 to i64
  %8 = zext nneg i32 %6 to i64
  %9 = xor i64 %8, %7
  br label %63

10:                                               ; preds = %2
  %11 = getelementptr i8, ptr %1, i64 4
  %.val33 = load i32, ptr %11, align 4
  %12 = getelementptr i8, ptr %1, i64 24
  %.val34 = load i32, ptr %12, align 8
  %13 = lshr i32 %.val34, 1
  %14 = and i32 %13, 1073741823
  %.not40 = icmp ult i32 %14, %.val33
  br i1 %.not40, label %20, label %.preheader

.preheader:                                       ; preds = %10
  %15 = getelementptr inbounds nuw i8, ptr %1, i64 8
  %16 = load i32, ptr %15, align 8
  %17 = icmp slt i32 %.val33, %16
  tail call void @llvm.assume(i1 %17)
  %18 = getelementptr i8, ptr %1, i64 16
  %19 = zext nneg i32 %.val33 to i64
  br label %29

20:                                               ; preds = %10
  %21 = getelementptr i8, ptr %1, i64 16
  %.val38 = load ptr, ptr %21, align 8
  %22 = zext nneg i32 %14 to i64
  %23 = getelementptr inbounds nuw %struct.Dec_Node_t_, ptr %.val38, i64 %22, i32 2
  %24 = load ptr, ptr %23, align 8
  %25 = and i32 %.val34, 1
  %26 = ptrtoint ptr %24 to i64
  %27 = zext nneg i32 %25 to i64
  %28 = xor i64 %26, %27
  br label %63

29:                                               ; preds = %.preheader, %29
  %indvars.iv = phi i64 [ %19, %.preheader ], [ %indvars.iv.next, %29 ]
  %.val37 = load ptr, ptr %18, align 8
  %30 = getelementptr inbounds nuw %struct.Dec_Node_t_, ptr %.val37, i64 %indvars.iv
  %31 = load i32, ptr %30, align 8
  %32 = lshr i32 %31, 1
  %33 = and i32 %32, 1073741823
  %34 = zext nneg i32 %33 to i64
  %35 = getelementptr inbounds nuw %struct.Dec_Node_t_, ptr %.val37, i64 %34, i32 2
  %36 = load ptr, ptr %35, align 8
  %37 = and i32 %31, 1
  %38 = ptrtoint ptr %36 to i64
  %39 = zext nneg i32 %37 to i64
  %40 = xor i64 %39, %38
  %41 = inttoptr i64 %40 to ptr
  %42 = getelementptr inbounds nuw i8, ptr %30, i64 4
  %43 = load i32, ptr %42, align 4
  %44 = lshr i32 %43, 1
  %45 = and i32 %44, 1073741823
  %46 = zext nneg i32 %45 to i64
  %47 = getelementptr inbounds nuw %struct.Dec_Node_t_, ptr %.val37, i64 %46, i32 2
  %48 = load ptr, ptr %47, align 8
  %49 = and i32 %43, 1
  %50 = ptrtoint ptr %48 to i64
  %51 = zext nneg i32 %49 to i64
  %52 = xor i64 %51, %50
  %53 = inttoptr i64 %52 to ptr
  %54 = tail call ptr @Abc_NtkCreateObj(ptr noundef %0, i32 noundef 7) #7
  tail call void @Abc_ObjAddFanin(ptr noundef %54, ptr noundef %41) #7
  tail call void @Abc_ObjAddFanin(ptr noundef %54, ptr noundef %53) #7
  %55 = getelementptr inbounds nuw i8, ptr %30, i64 8
  store ptr %54, ptr %55, align 8
  %indvars.iv.next = add nuw nsw i64 %indvars.iv, 1
  %56 = load i32, ptr %15, align 8
  %57 = sext i32 %56 to i64
  %58 = icmp slt i64 %indvars.iv.next, %57
  br i1 %58, label %29, label %.critedge, !llvm.loop !8

.critedge:                                        ; preds = %29
  %.val30 = load i32, ptr %12, align 8
  %59 = and i32 %.val30, 1
  %60 = ptrtoint ptr %54 to i64
  %61 = zext nneg i32 %59 to i64
  %62 = xor i64 %61, %60
  br label %63

63:                                               ; preds = %.critedge, %20, %3
  %.028.in = phi i64 [ %9, %3 ], [ %28, %20 ], [ %62, %.critedge ]
  %.028 = inttoptr i64 %.028.in to ptr
  ret ptr %.028
}